#include <math.h>
#include <stdio.h>
#include <stdlib.h>
#include <string.h>
#define LEN 100
#define ASCII 100
#define MAX_N 100
#define MAX_M 100
#define MAX 100
#define ASC 100
#define null 0
#define Len 100
#define shu 100
#define SUM 100
#define NUMBER 100
#define SIZE 100
#define X 100
#define Y 100
#define len 100
#define MAXN 100
#define MAXSIZE 100
#define maxrow 100
#define maxcol 100
#define num 100
#define mx 100
#define NUM 100
#define ROW 100
#define COL 100
#define SIZEE 100
#define MAX_LEN 100
#define LIU 100
#define maxsize 100
#define NUM 100
#define NO 100
#define Null 0
#define ID_DIGITS 100
#define INT_MAX 100
#define INT_MIN 100
#define FALSE 0
#define TRUE 1

struct student{
		struct student *pre;
		char s[100];
		struct student *next;
	};

struct student *creat()
{
	struct student *p1,*p2;
    p1=(struct student*)malloc(len);
	gets(p1->s);
	p1->pre=NULL;
	p1->next=NULL;

	p2=p1;
	while(strcmp(p1->s,"end"))
	{
	p1=(struct student*)malloc(len);
	gets(p1->s);
	p1->pre=p2;
	p2->next=p1;
	p1->next=NULL;
	p2=p1;
	}
	return(p1->pre);
}

void print(struct student *end)
{
	while(end)
	{
	puts(end->s);
	end=end->pre;
	}
}




void main()
{
	struct student *end;
	end=creat();
	print(end);
}