; ModuleID = '31/1778.c'
source_filename = "31/1778.c"
target datalayout = "e-m:e-p270:32:32-p271:32:32-p272:64:64-i64:64-f80:128-n8:16:32:64-S128"
target triple = "x86_64-pc-linux-gnu"

%struct.student = type { %struct.student*, [100 x i8], %struct.student* }

@.str = private unnamed_addr constant [4 x i8] c"end\00", align 1

; Function Attrs: noinline nounwind uwtable
define dso_local %struct.student* @creat() #0 {
  %1 = alloca %struct.student*, align 8
  %2 = alloca %struct.student*, align 8
  %3 = call noalias i8* @malloc(i64 100) #4
  %4 = bitcast i8* %3 to %struct.student*
  store %struct.student* %4, %struct.student** %1, align 8
  %5 = load %struct.student*, %struct.student** %1, align 8
  %6 = getelementptr inbounds %struct.student, %struct.student* %5, i32 0, i32 1
  %7 = getelementptr inbounds [100 x i8], [100 x i8]* %6, i64 0, i64 0
  %8 = call i32 (i8*, ...) bitcast (i32 (...)* @gets to i32 (i8*, ...)*)(i8* %7)
  %9 = load %struct.student*, %struct.student** %1, align 8
  %10 = getelementptr inbounds %struct.student, %struct.student* %9, i32 0, i32 0
  store %struct.student* null, %struct.student** %10, align 8
  %11 = load %struct.student*, %struct.student** %1, align 8
  %12 = getelementptr inbounds %struct.student, %struct.student* %11, i32 0, i32 2
  store %struct.student* null, %struct.student** %12, align 8
  %13 = load %struct.student*, %struct.student** %1, align 8
  store %struct.student* %13, %struct.student** %2, align 8
  br label %14

14:                                               ; preds = %20, %0
  %15 = load %struct.student*, %struct.student** %1, align 8
  %16 = getelementptr inbounds %struct.student, %struct.student* %15, i32 0, i32 1
  %17 = getelementptr inbounds [100 x i8], [100 x i8]* %16, i64 0, i64 0
  %18 = call i32 @strcmp(i8* %17, i8* getelementptr inbounds ([4 x i8], [4 x i8]* @.str, i64 0, i64 0)) #5
  %19 = icmp ne i32 %18, 0
  br i1 %19, label %20, label %36

20:                                               ; preds = %14
  %21 = call noalias i8* @malloc(i64 100) #4
  %22 = bitcast i8* %21 to %struct.student*
  store %struct.student* %22, %struct.student** %1, align 8
  %23 = load %struct.student*, %struct.student** %1, align 8
  %24 = getelementptr inbounds %struct.student, %struct.student* %23, i32 0, i32 1
  %25 = getelementptr inbounds [100 x i8], [100 x i8]* %24, i64 0, i64 0
  %26 = call i32 (i8*, ...) bitcast (i32 (...)* @gets to i32 (i8*, ...)*)(i8* %25)
  %27 = load %struct.student*, %struct.student** %2, align 8
  %28 = load %struct.student*, %struct.student** %1, align 8
  %29 = getelementptr inbounds %struct.student, %struct.student* %28, i32 0, i32 0
  store %struct.student* %27, %struct.student** %29, align 8
  %30 = load %struct.student*, %struct.student** %1, align 8
  %31 = load %struct.student*, %struct.student** %2, align 8
  %32 = getelementptr inbounds %struct.student, %struct.student* %31, i32 0, i32 2
  store %struct.student* %30, %struct.student** %32, align 8
  %33 = load %struct.student*, %struct.student** %1, align 8
  %34 = getelementptr inbounds %struct.student, %struct.student* %33, i32 0, i32 2
  store %struct.student* null, %struct.student** %34, align 8
  %35 = load %struct.student*, %struct.student** %1, align 8
  store %struct.student* %35, %struct.student** %2, align 8
  br label %14

36:                                               ; preds = %14
  %37 = load %struct.student*, %struct.student** %1, align 8
  %38 = getelementptr inbounds %struct.student, %struct.student* %37, i32 0, i32 0
  %39 = load %struct.student*, %struct.student** %38, align 8
  ret %struct.student* %39
}

; Function Attrs: nounwind
declare dso_local noalias i8* @malloc(i64) #1

declare dso_local i32 @gets(...) #2

; Function Attrs: nounwind readonly
declare dso_local i32 @strcmp(i8*, i8*) #3

; Function Attrs: noinline nounwind uwtable
define dso_local void @print(%struct.student* %0) #0 {
  %2 = alloca %struct.student*, align 8
  store %struct.student* %0, %struct.student** %2, align 8
  br label %3

3:                                                ; preds = %6, %1
  %4 = load %struct.student*, %struct.student** %2, align 8
  %5 = icmp ne %struct.student* %4, null
  br i1 %5, label %6, label %14

6:                                                ; preds = %3
  %7 = load %struct.student*, %struct.student** %2, align 8
  %8 = getelementptr inbounds %struct.student, %struct.student* %7, i32 0, i32 1
  %9 = getelementptr inbounds [100 x i8], [100 x i8]* %8, i64 0, i64 0
  %10 = call i32 @puts(i8* %9)
  %11 = load %struct.student*, %struct.student** %2, align 8
  %12 = getelementptr inbounds %struct.student, %struct.student* %11, i32 0, i32 0
  %13 = load %struct.student*, %struct.student** %12, align 8
  store %struct.student* %13, %struct.student** %2, align 8
  br label %3

14:                                               ; preds = %3
  ret void
}

declare dso_local i32 @puts(i8*) #2

; Function Attrs: noinline nounwind uwtable
define dso_local void @main() #0 {
  %1 = alloca %struct.student*, align 8
  %2 = call %struct.student* @creat()
  store %struct.student* %2, %struct.student** %1, align 8
  %3 = load %struct.student*, %struct.student** %1, align 8
  call void @print(%struct.student* %3)
  ret void
}


!llvm.module.flags = !{!0}
!llvm.ident = !{!1}

!0 = !{i32 1, !"wchar_size", i32 4}
!1 = !{!"clang version 10.0.0-4ubuntu1 "}
