; ModuleID = 'source-C-CXX/30/1778.c'
source_filename = "source-C-CXX/30/1778.c"
target datalayout = "e-m:e-p270:32:32-p271:32:32-p272:64:64-i64:64-f80:128-n8:16:32:64-S128"
target triple = "x86_64-pc-linux-gnu"

%struct.student = type { %struct.student*, [100 x i8], %struct.student* }

@.str = private unnamed_addr constant [4 x i8] c"end\00", align 1

; Function Attrs: nounwind sspstrong uwtable
define dso_local %struct.student* @creat() local_unnamed_addr #0 {
  %1 = tail call noalias align 16 dereferenceable_or_null(100) i8* @malloc(i64 100) #6
  %2 = bitcast i8* %1 to %struct.student*
  %3 = getelementptr inbounds %struct.student, %struct.student* %2, i64 0, i32 1, i64 0
  %4 = tail call i32 (i8*, ...) bitcast (i32 (...)* @gets to i32 (i8*, ...)*)(i8* nonnull %3) #6
  %5 = getelementptr inbounds %struct.student, %struct.student* %2, i64 0, i32 0
  store %struct.student* null, %struct.student** %5, align 16, !tbaa !5
  %6 = getelementptr inbounds %struct.student, %struct.student* %2, i64 0, i32 2
  store %struct.student* null, %struct.student** %6, align 16, !tbaa !10
  %7 = tail call i32 @strcmp(i8* noundef nonnull %3, i8* noundef nonnull dereferenceable(4) getelementptr inbounds ([4 x i8], [4 x i8]* @.str, i64 0, i64 0)) #7
  %8 = icmp eq i32 %7, 0
  br i1 %8, label %21, label %9

9:                                                ; preds = %0, %9
  %10 = phi %struct.student* [ %12, %9 ], [ %2, %0 ]
  %11 = tail call noalias align 16 dereferenceable_or_null(100) i8* @malloc(i64 100) #6
  %12 = bitcast i8* %11 to %struct.student*
  %13 = getelementptr inbounds %struct.student, %struct.student* %12, i64 0, i32 1, i64 0
  %14 = tail call i32 (i8*, ...) bitcast (i32 (...)* @gets to i32 (i8*, ...)*)(i8* nonnull %13) #6
  %15 = getelementptr inbounds %struct.student, %struct.student* %12, i64 0, i32 0
  store %struct.student* %10, %struct.student** %15, align 16, !tbaa !5
  %16 = getelementptr inbounds %struct.student, %struct.student* %10, i64 0, i32 2
  %17 = bitcast %struct.student** %16 to i8**
  store i8* %11, i8** %17, align 8, !tbaa !10
  %18 = getelementptr inbounds %struct.student, %struct.student* %12, i64 0, i32 2
  store %struct.student* null, %struct.student** %18, align 16, !tbaa !10
  %19 = tail call i32 @strcmp(i8* noundef nonnull %13, i8* noundef nonnull dereferenceable(4) getelementptr inbounds ([4 x i8], [4 x i8]* @.str, i64 0, i64 0)) #7
  %20 = icmp eq i32 %19, 0
  br i1 %20, label %21, label %9, !llvm.loop !11

21:                                               ; preds = %9, %0
  %22 = phi %struct.student* [ null, %0 ], [ %10, %9 ]
  ret %struct.student* %22
}

; Function Attrs: inaccessiblememonly mustprogress nofree nounwind willreturn
declare noalias noundef align 16 i8* @malloc(i64 noundef) local_unnamed_addr #1

declare i32 @gets(...) local_unnamed_addr #2

; Function Attrs: argmemonly mustprogress nofree nounwind readonly willreturn
declare i32 @strcmp(i8* nocapture, i8* nocapture) local_unnamed_addr #3

; Function Attrs: nofree nounwind sspstrong uwtable
define dso_local void @print(%struct.student* readonly %0) local_unnamed_addr #4 {
  %2 = icmp eq %struct.student* %0, null
  br i1 %2, label %10, label %3

3:                                                ; preds = %1, %3
  %4 = phi %struct.student* [ %8, %3 ], [ %0, %1 ]
  %5 = getelementptr inbounds %struct.student, %struct.student* %4, i64 0, i32 1, i64 0
  %6 = tail call i32 @puts(i8* nonnull %5)
  %7 = getelementptr inbounds %struct.student, %struct.student* %4, i64 0, i32 0
  %8 = load %struct.student*, %struct.student** %7, align 8, !tbaa !5
  %9 = icmp eq %struct.student* %8, null
  br i1 %9, label %10, label %3, !llvm.loop !13

10:                                               ; preds = %3, %1
  ret void
}

; Function Attrs: nofree nounwind
declare noundef i32 @puts(i8* nocapture noundef readonly) local_unnamed_addr #5

; Function Attrs: nounwind sspstrong uwtable
define dso_local void @main() local_unnamed_addr #0 {
  %1 = tail call noalias align 16 dereferenceable_or_null(100) i8* @malloc(i64 100) #6
  %2 = bitcast i8* %1 to %struct.student*
  %3 = getelementptr inbounds %struct.student, %struct.student* %2, i64 0, i32 1, i64 0
  %4 = tail call i32 (i8*, ...) bitcast (i32 (...)* @gets to i32 (i8*, ...)*)(i8* nonnull %3) #6
  %5 = getelementptr inbounds %struct.student, %struct.student* %2, i64 0, i32 0
  store %struct.student* null, %struct.student** %5, align 16, !tbaa !5
  %6 = getelementptr inbounds %struct.student, %struct.student* %2, i64 0, i32 2
  store %struct.student* null, %struct.student** %6, align 16, !tbaa !10
  %7 = tail call i32 @strcmp(i8* noundef nonnull %3, i8* noundef nonnull dereferenceable(4) getelementptr inbounds ([4 x i8], [4 x i8]* @.str, i64 0, i64 0)) #7
  %8 = icmp eq i32 %7, 0
  br i1 %8, label %28, label %9

9:                                                ; preds = %0, %9
  %10 = phi %struct.student* [ %12, %9 ], [ %2, %0 ]
  %11 = tail call noalias align 16 dereferenceable_or_null(100) i8* @malloc(i64 100) #6
  %12 = bitcast i8* %11 to %struct.student*
  %13 = getelementptr inbounds %struct.student, %struct.student* %12, i64 0, i32 1, i64 0
  %14 = tail call i32 (i8*, ...) bitcast (i32 (...)* @gets to i32 (i8*, ...)*)(i8* nonnull %13) #6
  %15 = getelementptr inbounds %struct.student, %struct.student* %12, i64 0, i32 0
  store %struct.student* %10, %struct.student** %15, align 16, !tbaa !5
  %16 = getelementptr inbounds %struct.student, %struct.student* %10, i64 0, i32 2
  %17 = bitcast %struct.student** %16 to i8**
  store i8* %11, i8** %17, align 8, !tbaa !10
  %18 = getelementptr inbounds %struct.student, %struct.student* %12, i64 0, i32 2
  store %struct.student* null, %struct.student** %18, align 16, !tbaa !10
  %19 = tail call i32 @strcmp(i8* noundef nonnull %13, i8* noundef nonnull dereferenceable(4) getelementptr inbounds ([4 x i8], [4 x i8]* @.str, i64 0, i64 0)) #7
  %20 = icmp eq i32 %19, 0
  br i1 %20, label %21, label %9, !llvm.loop !11

21:                                               ; preds = %9, %21
  %22 = phi %struct.student* [ %26, %21 ], [ %10, %9 ]
  %23 = getelementptr inbounds %struct.student, %struct.student* %22, i64 0, i32 1, i64 0
  %24 = tail call i32 @puts(i8* nonnull %23) #6
  %25 = getelementptr inbounds %struct.student, %struct.student* %22, i64 0, i32 0
  %26 = load %struct.student*, %struct.student** %25, align 8, !tbaa !5
  %27 = icmp eq %struct.student* %26, null
  br i1 %27, label %28, label %21, !llvm.loop !13

28:                                               ; preds = %21, %0
  ret void
}


!llvm.module.flags = !{!0, !1, !2, !3}
!llvm.ident = !{!4}

!0 = !{i32 1, !"wchar_size", i32 4}
!1 = !{i32 7, !"PIC Level", i32 2}
!2 = !{i32 7, !"PIE Level", i32 2}
!3 = !{i32 7, !"uwtable", i32 1}
!4 = !{!"clang version 13.0.0"}
!5 = !{!6, !7, i64 0}
!6 = !{!"student", !7, i64 0, !8, i64 8, !7, i64 112}
!7 = !{!"any pointer", !8, i64 0}
!8 = !{!"omnipotent char", !9, i64 0}
!9 = !{!"Simple C/C++ TBAA"}
!10 = !{!6, !7, i64 112}
!11 = distinct !{!11, !12}
!12 = !{!"llvm.loop.mustprogress"}
!13 = distinct !{!13, !12}
